LIBRARY usvfs_x64

EXPORTS
  ??0SharedParameters@usvfs@@QEAA@AEBUusvfsParameters@@AEBV?$scoped_allocator_adaptor@V?$allocator@XV?$segment_manager@DV?$rbtree_best_fit@Umutex_family@interprocess@boost@@V?$offset_ptr@XH_K$0A@@23@$07@interprocess@boost@@Viset_index@23@@interprocess@boost@@@interprocess@boost@@$$V@container@boost@@@Z @1
  ??1HookContext@usvfs@@QEAA@XZ @2
  ??1SharedParameters@usvfs@@QEAA@XZ @3
  ?addForcedLibrary@SharedParameters@usvfs@@QEAAXAEBV?$basic_string@DU?$char_traits@D@std@@V?$allocator@D@2@@std@@0@Z @4
  ?addSkipDirectory@SharedParameters@usvfs@@QEAAXAEBV?$basic_string@DU?$char_traits@D@std@@V?$allocator@D@2@@std@@@Z @5
  ?addSkipFileSuffix@SharedParameters@usvfs@@QEAAXAEBV?$basic_string@DU?$char_traits@D@std@@V?$allocator@D@2@@std@@@Z @6
  ?blacklistExecutable@SharedParameters@usvfs@@QEAAXAEBV?$basic_string@DU?$char_traits@D@std@@V?$allocator@D@2@@std@@@Z @7
  ?clearExecutableBlacklist@SharedParameters@usvfs@@QEAAXXZ @8
  ?clearForcedLibraries@SharedParameters@usvfs@@QEAAXXZ @9
  ?clearSkipDirectories@SharedParameters@usvfs@@QEAAXXZ @10
  ?clearSkipFileSuffixes@SharedParameters@usvfs@@QEAAXXZ @11
  ?currentInverseSHMName@SharedParameters@usvfs@@QEBA?AV?$basic_string@DU?$char_traits@D@std@@V?$allocator@D@2@@std@@XZ @12
  ?currentSHMName@SharedParameters@usvfs@@QEBA?AV?$basic_string@DU?$char_traits@D@std@@V?$allocator@D@2@@std@@XZ @13
  ?executableBlacklisted@SharedParameters@usvfs@@QEBA_NAEBV?$basic_string@DU?$char_traits@D@std@@V?$allocator@D@2@@std@@0@Z @14
  ?forcedLibraries@SharedParameters@usvfs@@QEAA?AV?$vector@V?$basic_string@DU?$char_traits@D@std@@V?$allocator@D@2@@std@@V?$allocator@V?$basic_string@DU?$char_traits@D@std@@V?$allocator@D@2@@std@@@2@@std@@AEBV?$basic_string@DU?$char_traits@D@std@@V?$allocator@D@2@@4@@Z @15
  ?hook_CopyFile2@usvfs@@YAJPEB_W0PEAUCOPYFILE2_EXTENDED_PARAMETERS@@@Z @16
  ?hook_CopyFileExW@usvfs@@YAHPEB_W0P6AKT_LARGE_INTEGER@@111KKPEAX22@Z2PEAHK@Z @17
  ?hook_CreateDirectoryW@usvfs@@YAHPEB_WPEAU_SECURITY_ATTRIBUTES@@@Z @18
  ?hook_CreateProcessInternalW@usvfs@@YAHPEAXPEB_WPEA_WPEAU_SECURITY_ATTRIBUTES@@3HK01PEAU_STARTUPINFOW@@PEAU_PROCESS_INFORMATION@@0@Z @19
  ?hook_DeleteFileW@usvfs@@YAHPEB_W@Z @20
  ?hook_ExitProcess@usvfs@@YAXI@Z @21
  ?hook_FindFirstFileExW@usvfs@@YAPEAXPEB_WW4_FINDEX_INFO_LEVELS@@PEAXW4_FINDEX_SEARCH_OPS@@2K@Z @22
  ?hook_GetCurrentDirectoryA@usvfs@@YAKKPEAD@Z @23
  ?hook_GetCurrentDirectoryW@usvfs@@YAKKPEA_W@Z @24
  ?hook_GetFileAttributesExW@usvfs@@YAHPEB_WW4_GET_FILEEX_INFO_LEVELS@@PEAX@Z @25
  ?hook_GetFileAttributesW@usvfs@@YAKPEB_W@Z @26
  ?hook_GetFullPathNameA@usvfs@@YAKPEBDKPEADPEAPEAD@Z @27
  ?hook_GetFullPathNameW@usvfs@@YAKPEB_WKPEA_WPEAPEA_W@Z @28
  ?hook_GetModuleFileNameW@usvfs@@YAKPEAUHINSTANCE__@@PEA_WK@Z @29
  ?hook_GetPrivateProfileSectionA@usvfs@@YAKPEBDPEADK0@Z @30
  ?hook_GetPrivateProfileSectionW@usvfs@@YAKPEB_WPEA_WK0@Z @31
  ?hook_GetPrivateProfileStringA@usvfs@@YAKPEBD00PEADK0@Z @32
  ?hook_GetPrivateProfileStringW@usvfs@@YAKPEB_W00PEA_WK0@Z @33
  ?hook_LoadLibraryExW@usvfs@@YAPEAUHINSTANCE__@@PEB_WPEAXK@Z @34
  ?hook_MoveFileA@usvfs@@YAHPEBD0@Z @35
  ?hook_MoveFileExA@usvfs@@YAHPEBD0K@Z @36
  ?hook_MoveFileExW@usvfs@@YAHPEB_W0K@Z @37
  ?hook_MoveFileW@usvfs@@YAHPEB_W0@Z @38
  ?hook_MoveFileWithProgressA@usvfs@@YAHPEBD0P6AKT_LARGE_INTEGER@@111KKPEAX22@Z2K@Z @39
  ?hook_MoveFileWithProgressW@usvfs@@YAHPEB_W0P6AKT_LARGE_INTEGER@@111KKPEAX22@Z2K@Z @40
  ?hook_NtClose@usvfs@@YAJPEAX@Z @41
  ?hook_NtCreateFile@usvfs@@YAJPEAPEAXKPEAU_OBJECT_ATTRIBUTES@@PEAU_IO_STATUS_BLOCK@@PEAT_LARGE_INTEGER@@KKKKPEAXK@Z @42
  ?hook_NtOpenFile@usvfs@@YAJPEAPEAXKPEAU_OBJECT_ATTRIBUTES@@PEAU_IO_STATUS_BLOCK@@KK@Z @43
  ?hook_NtQueryAttributesFile@usvfs@@YAJPEAU_OBJECT_ATTRIBUTES@@PEAU_FILE_BASIC_INFORMATION@@@Z @44
  ?hook_NtQueryDirectoryFile@usvfs@@YAJPEAX0P6AX0PEAU_IO_STATUS_BLOCK@@K@Z010KW4_FILE_INFORMATION_CLASS@@EPEAU_UNICODE_STRING@@E@Z @45
  ?hook_NtQueryDirectoryFileEx@usvfs@@YAJPEAX0P6AX0PEAU_IO_STATUS_BLOCK@@K@Z010KW4_FILE_INFORMATION_CLASS@@KPEAU_UNICODE_STRING@@@Z @46
  ?hook_NtQueryFullAttributesFile@usvfs@@YAJPEAU_OBJECT_ATTRIBUTES@@PEAU_FILE_NETWORK_OPEN_INFORMATION@@@Z @47
  ?hook_NtTerminateProcess@usvfs@@YAJPEAXJ@Z @48
  ?hook_RemoveDirectoryW@usvfs@@YAHPEB_W@Z @49
  ?hook_SetCurrentDirectoryA@usvfs@@YAHPEBD@Z @50
  ?hook_SetCurrentDirectoryW@usvfs@@YAHPEB_W@Z @51
  ?hook_SetFileAttributesW@usvfs@@YAKPEB_WK@Z @52
  ?hook_WritePrivateProfileStringA@usvfs@@YAHPEBD000@Z @53
  ?hook_WritePrivateProfileStringW@usvfs@@YAHPEB_W000@Z @54
  ?instanceName@SharedParameters@usvfs@@QEBA?AV?$basic_string@DU?$char_traits@D@std@@V?$allocator@D@2@@std@@XZ @55
  ?makeLocal@SharedParameters@usvfs@@QEBA?AUusvfsParameters@@XZ @56
  ?registerProcess@SharedParameters@usvfs@@QEAAXK@Z @57
  ?registeredProcessCount@SharedParameters@usvfs@@QEBA_KXZ @58
  ?registeredProcesses@SharedParameters@usvfs@@QEBA?AV?$vector@KV?$allocator@K@std@@@std@@XZ @59
  ?setDebugParameters@SharedParameters@usvfs@@QEAAXW4LogLevel@@W4CrashDumpsType@@AEBV?$basic_string@DU?$char_traits@D@std@@V?$allocator@D@2@@std@@V?$duration@_JU?$ratio@$00$0DOI@@std@@@chrono@6@@Z @60
  ?setSHMNames@SharedParameters@usvfs@@QEAAXAEBV?$basic_string@DU?$char_traits@D@std@@V?$allocator@D@2@@std@@0@Z @61
  ?skipDirectories@SharedParameters@usvfs@@QEBA?AV?$vector@V?$basic_string@DU?$char_traits@D@std@@V?$allocator@D@2@@std@@V?$allocator@V?$basic_string@DU?$char_traits@D@std@@V?$allocator@D@2@@std@@@2@@std@@XZ @62
  ?skipFileSuffixes@SharedParameters@usvfs@@QEBA?AV?$vector@V?$basic_string@DU?$char_traits@D@std@@V?$allocator@D@2@@std@@V?$allocator@V?$basic_string@DU?$char_traits@D@std@@V?$allocator@D@2@@std@@@2@@std@@XZ @63
  ?unregisterProcess@SharedParameters@usvfs@@QEAAXK@Z @64
  ?userConnected@SharedParameters@usvfs@@QEAA_KXZ @65
  ?userCount@SharedParameters@usvfs@@QEAA_KXZ @66
  ?userDisconnected@SharedParameters@usvfs@@QEAA_KXZ @67
  CreateHookContext @68
  InitHooks @69
  usvfsAddSkipDirectory @70
  usvfsAddSkipFileSuffix @71
  usvfsBlacklistExecutable @72
  usvfsClearExecutableBlacklist @73
  usvfsClearLibraryForceLoads @74
  usvfsClearSkipDirectories @75
  usvfsClearSkipFileSuffixes @76
  usvfsClearVirtualMappings @77
  usvfsConnectVFS @78
  usvfsCopyParameters @79
  usvfsCrashDumpTypeToString @80
  usvfsCreateHookContext @81
  usvfsCreateMiniDump @82
  usvfsCreateParameters @83
  usvfsCreateProcessHooked @84
  usvfsCreateVFS @85
  usvfsCreateVFSDump @86
  usvfsDisconnectVFS @87
  usvfsDupeParameters @88
  usvfsForceLoadLibrary @89
  usvfsFreeParameters @90
  usvfsGetCurrentVFSName @91
  usvfsGetLogMessages @92
  usvfsGetVFSProcessList @93
  usvfsGetVFSProcessList2 @94
  usvfsInitLogging @95
  usvfsLogLevelToString @96
  usvfsPrintDebugInfo @97
  usvfsSetCrashDumpPath @98
  usvfsSetCrashDumpType @99
  usvfsSetDebugMode @100
  usvfsSetInstanceName @101
  usvfsSetLogLevel @102
  usvfsSetProcessDelay @103
  usvfsUpdateParameters @104
  usvfsVersionString @105
  usvfsVirtualLinkDirectoryStatic @106
  usvfsVirtualLinkFile @107

