LIBRARY usvfs_x64

EXPORTS
  ??0SharedParameters@usvfs@@QEAA@AEBUusvfsParameters@@AEBV?$scoped_allocator_adaptor@V?$allocator@XV?$segment_manager@DV?$rbtree_best_fit@Umutex_family@interprocess@boost@@V?$offset_ptr@XH_K$0A@@23@$07@interprocess@boost@@Viset_index@23@@interprocess@boost@@@interprocess@boost@@$$V@container@boost@@@Z @1
  ??1HookContext@usvfs@@QEAA@XZ @2
  ??1SharedParameters@usvfs@@QEAA@XZ @3
  ?addForcedLibrary@SharedParameters@usvfs@@QEAAXAEBV?$basic_string@DU?$char_traits@D@std@@V?$allocator@D@2@@std@@0@Z @4
  ?blacklistExecutable@SharedParameters@usvfs@@QEAAXAEBV?$basic_string@DU?$char_traits@D@std@@V?$allocator@D@2@@std@@@Z @5
  ?clearExecutableBlacklist@SharedParameters@usvfs@@QEAAXXZ @6
  ?clearForcedLibraries@SharedParameters@usvfs@@QEAAXXZ @7
  ?currentInverseSHMName@SharedParameters@usvfs@@QEBA?AV?$basic_string@DU?$char_traits@D@std@@V?$allocator@D@2@@std@@XZ @8
  ?currentSHMName@SharedParameters@usvfs@@QEBA?AV?$basic_string@DU?$char_traits@D@std@@V?$allocator@D@2@@std@@XZ @9
  ?executableBlacklisted@SharedParameters@usvfs@@QEBA_NAEBV?$basic_string@DU?$char_traits@D@std@@V?$allocator@D@2@@std@@0@Z @10
  ?forcedLibraries@SharedParameters@usvfs@@QEAA?AV?$vector@V?$basic_string@DU?$char_traits@D@std@@V?$allocator@D@2@@std@@V?$allocator@V?$basic_string@DU?$char_traits@D@std@@V?$allocator@D@2@@std@@@2@@std@@AEBV?$basic_string@DU?$char_traits@D@std@@V?$allocator@D@2@@4@@Z @11
  ?hook_CopyFile2@usvfs@@YAJPEB_W0PEAUCOPYFILE2_EXTENDED_PARAMETERS@@@Z @12
  ?hook_CopyFileExW@usvfs@@YAHPEB_W0P6AKT_LARGE_INTEGER@@111KKPEAX22@Z2PEAHK@Z @13
  ?hook_CreateDirectoryW@usvfs@@YAHPEB_WPEAU_SECURITY_ATTRIBUTES@@@Z @14
  ?hook_CreateProcessInternalW@usvfs@@YAHPEAXPEB_WPEA_WPEAU_SECURITY_ATTRIBUTES@@3HK01PEAU_STARTUPINFOW@@PEAU_PROCESS_INFORMATION@@0@Z @15
  ?hook_DeleteFileW@usvfs@@YAHPEB_W@Z @16
  ?hook_ExitProcess@usvfs@@YAXI@Z @17
  ?hook_FindFirstFileExW@usvfs@@YAPEAXPEB_WW4_FINDEX_INFO_LEVELS@@PEAXW4_FINDEX_SEARCH_OPS@@2K@Z @18
  ?hook_GetCurrentDirectoryA@usvfs@@YAKKPEAD@Z @19
  ?hook_GetCurrentDirectoryW@usvfs@@YAKKPEA_W@Z @20
  ?hook_GetFileAttributesExW@usvfs@@YAHPEB_WW4_GET_FILEEX_INFO_LEVELS@@PEAX@Z @21
  ?hook_GetFileAttributesW@usvfs@@YAKPEB_W@Z @22
  ?hook_GetFullPathNameA@usvfs@@YAKPEBDKPEADPEAPEAD@Z @23
  ?hook_GetFullPathNameW@usvfs@@YAKPEB_WKPEA_WPEAPEA_W@Z @24
  ?hook_GetModuleFileNameW@usvfs@@YAKPEAUHINSTANCE__@@PEA_WK@Z @25
  ?hook_GetPrivateProfileSectionA@usvfs@@YAKPEBDPEADK0@Z @26
  ?hook_GetPrivateProfileSectionW@usvfs@@YAKPEB_WPEA_WK0@Z @27
  ?hook_GetPrivateProfileStringA@usvfs@@YAKPEBD00PEADK0@Z @28
  ?hook_GetPrivateProfileStringW@usvfs@@YAKPEB_W00PEA_WK0@Z @29
  ?hook_LoadLibraryExW@usvfs@@YAPEAUHINSTANCE__@@PEB_WPEAXK@Z @30
  ?hook_MoveFileA@usvfs@@YAHPEBD0@Z @31
  ?hook_MoveFileExA@usvfs@@YAHPEBD0K@Z @32
  ?hook_MoveFileExW@usvfs@@YAHPEB_W0K@Z @33
  ?hook_MoveFileW@usvfs@@YAHPEB_W0@Z @34
  ?hook_MoveFileWithProgressA@usvfs@@YAHPEBD0P6AKT_LARGE_INTEGER@@111KKPEAX22@Z2K@Z @35
  ?hook_MoveFileWithProgressW@usvfs@@YAHPEB_W0P6AKT_LARGE_INTEGER@@111KKPEAX22@Z2K@Z @36
  ?hook_NtClose@usvfs@@YAJPEAX@Z @37
  ?hook_NtCreateFile@usvfs@@YAJPEAPEAXKPEAU_OBJECT_ATTRIBUTES@@PEAU_IO_STATUS_BLOCK@@PEAT_LARGE_INTEGER@@KKKKPEAXK@Z @38
  ?hook_NtOpenFile@usvfs@@YAJPEAPEAXKPEAU_OBJECT_ATTRIBUTES@@PEAU_IO_STATUS_BLOCK@@KK@Z @39
  ?hook_NtQueryAttributesFile@usvfs@@YAJPEAU_OBJECT_ATTRIBUTES@@PEAU_FILE_BASIC_INFORMATION@@@Z @40
  ?hook_NtQueryDirectoryFile@usvfs@@YAJPEAX0P6AX0PEAU_IO_STATUS_BLOCK@@K@Z010KW4_FILE_INFORMATION_CLASS@@EPEAU_UNICODE_STRING@@E@Z @41
  ?hook_NtQueryDirectoryFileEx@usvfs@@YAJPEAX0P6AX0PEAU_IO_STATUS_BLOCK@@K@Z010KW4_FILE_INFORMATION_CLASS@@KPEAU_UNICODE_STRING@@@Z @42
  ?hook_NtQueryFullAttributesFile@usvfs@@YAJPEAU_OBJECT_ATTRIBUTES@@PEAU_FILE_NETWORK_OPEN_INFORMATION@@@Z @43
  ?hook_NtTerminateProcess@usvfs@@YAJPEAXJ@Z @44
  ?hook_RemoveDirectoryW@usvfs@@YAHPEB_W@Z @45
  ?hook_SetCurrentDirectoryA@usvfs@@YAHPEBD@Z @46
  ?hook_SetCurrentDirectoryW@usvfs@@YAHPEB_W@Z @47
  ?hook_SetFileAttributesW@usvfs@@YAKPEB_WK@Z @48
  ?hook_WritePrivateProfileStringA@usvfs@@YAHPEBD000@Z @49
  ?hook_WritePrivateProfileStringW@usvfs@@YAHPEB_W000@Z @50
  ?instanceName@SharedParameters@usvfs@@QEBA?AV?$basic_string@DU?$char_traits@D@std@@V?$allocator@D@2@@std@@XZ @51
  ?makeLocal@SharedParameters@usvfs@@QEBA?AUusvfsParameters@@XZ @52
  ?registerProcess@SharedParameters@usvfs@@QEAAXK@Z @53
  ?registeredProcessCount@SharedParameters@usvfs@@QEBA_KXZ @54
  ?registeredProcesses@SharedParameters@usvfs@@QEBA?AV?$vector@KV?$allocator@K@std@@@std@@XZ @55
  ?setDebugParameters@SharedParameters@usvfs@@QEAAXW4LogLevel@@W4CrashDumpsType@@AEBV?$basic_string@DU?$char_traits@D@std@@V?$allocator@D@2@@std@@V?$duration@_JU?$ratio@$00$0DOI@@std@@@chrono@6@@Z @56
  ?setSHMNames@SharedParameters@usvfs@@QEAAXAEBV?$basic_string@DU?$char_traits@D@std@@V?$allocator@D@2@@std@@0@Z @57
  ?unregisterProcess@SharedParameters@usvfs@@QEAAXK@Z @58
  ?userConnected@SharedParameters@usvfs@@QEAA_KXZ @59
  ?userCount@SharedParameters@usvfs@@QEAA_KXZ @60
  ?userDisconnected@SharedParameters@usvfs@@QEAA_KXZ @61
  BlacklistExecutable @62
  ClearExecutableBlacklist @63
  ClearLibraryForceLoads @64
  ClearVirtualMappings @65
  ConnectVFS @66
  CreateHookContext @67
  CreateMiniDump @68
  CreateProcessHooked @69
  CreateVFS @70
  CreateVFSDump @71
  DisconnectVFS @72
  ForceLoadLibrary @73
  GetCurrentVFSName @74
  GetLogMessages @75
  GetVFSProcessList @76
  GetVFSProcessList2 @77
  InitHooks @78
  InitLogging @79
  PrintDebugInfo @80
  USVFSInitParameters @81
  USVFSUpdateParams @82
  USVFSVersionString @83
  VirtualLinkDirectoryStatic @84
  VirtualLinkFile @85
  usvfsConnectVFS @86
  usvfsCopyParameters @87
  usvfsCrashDumpTypeToString @88
  usvfsCreateHookContext @89
  usvfsCreateParameters @90
  usvfsCreateVFS @91
  usvfsDupeParameters @92
  usvfsFreeParameters @93
  usvfsLogLevelToString @94
  usvfsSetCrashDumpPath @95
  usvfsSetCrashDumpType @96
  usvfsSetDebugMode @97
  usvfsSetInstanceName @98
  usvfsSetLogLevel @99
  usvfsSetProcessDelay @100
  usvfsUpdateParameters @101
